; Function Attrs: mustprogress uwtable
define noundef signext range(i16 0, -32768) i16 @_ZNK11BigUnsigned7toShortEv(ptr noundef nonnull readonly align 8 captures(none) dereferenceable(16) %0) local_unnamed_addr #0 align 2 {
  %2 = getelementptr inbounds nuw i8, ptr %0, i64 4
  %3 = load i32, ptr %2, align 4, !tbaa !14
  switch i32 %3, label %10 [
    i32 0, label %_ZNK11BigUnsigned24convertToSignedPrimitiveIsEET_v.exit
    i32 1, label %4
  ]

4:                                                ; preds = %1
  %5 = getelementptr inbounds nuw i8, ptr %0, i64 8
  %6 = load ptr, ptr %5, align 8, !tbaa !13
  %7 = load i64, ptr %6, align 8, !tbaa !15
  %8 = add i64 %7, -32768
  %9 = icmp ult i64 %8, -65536
  br i1 %9, label %10, label %_ZNK11BigUnsigned18convertToPrimitiveIsEET_v.exit.i

10:                                               ; preds = %4, %1
  %11 = tail call ptr @__cxa_allocate_exception(i64 8) #9
  store ptr @.str.6, ptr %11, align 16, !tbaa !17
  tail call void @__cxa_throw(ptr nonnull %11, ptr nonnull @_ZTIPKc, ptr null) #10
  unreachable

_ZNK11BigUnsigned18convertToPrimitiveIsEET_v.exit.i: ; preds = %4
  %12 = trunc i64 %7 to i16
  %13 = icmp sgt i16 %12, -1
  br i1 %13, label %_ZNK11BigUnsigned24convertToSignedPrimitiveIsEET_v.exit, label %14

14:                                               ; preds = %_ZNK11BigUnsigned18convertToPrimitiveIsEET_v.exit.i
  %15 = tail call ptr @__cxa_allocate_exception(i64 8) #9
  store ptr @.str.7, ptr %15, align 16, !tbaa !17
  tail call void @__cxa_throw(ptr nonnull %15, ptr nonnull @_ZTIPKc, ptr null) #10
  unreachable

_ZNK11BigUnsigned24convertToSignedPrimitiveIsEET_v.exit: ; preds = %1, %_ZNK11BigUnsigned18convertToPrimitiveIsEET_v.exit.i
  %.04.i3.i = phi i16 [ %12, %_ZNK11BigUnsigned18convertToPrimitiveIsEET_v.exit.i ], [ 0, %1 ]
  ret i16 %.04.i3.i
}